; ModuleID = '22/236.c'
source_filename = "22/236.c"
target datalayout = "e-m:e-p270:32:32-p271:32:32-p272:64:64-i64:64-f80:128-n8:16:32:64-S128"
target triple = "x86_64-pc-linux-gnu"

@.str = private unnamed_addr constant [3 x i8] c"%c\00", align 1
@.str.1 = private unnamed_addr constant [3 x i8] c"%d\00", align 1
@.str.2 = private unnamed_addr constant [3 x i8] c"No\00", align 1

; Function Attrs: noinline nounwind uwtable
define dso_local void @main() #0 {
  %1 = alloca i8, align 1
  %2 = alloca [500 x [6 x i8]], align 16
  %3 = alloca [500 x i32], align 16
  %4 = alloca i32, align 4
  %5 = alloca i32, align 4
  %6 = alloca i32, align 4
  %7 = alloca i32, align 4
  %8 = alloca i32, align 4
  %9 = alloca i32, align 4
  %10 = alloca i32, align 4
  %11 = alloca i32, align 4
  %12 = alloca i32, align 4
  %13 = bitcast [500 x [6 x i8]]* %2 to i8*
  call void @llvm.memset.p0i8.i64(i8* align 16 %13, i8 0, i64 3000, i1 false)
  %14 = bitcast [500 x i32]* %3 to i8*
  call void @llvm.memset.p0i8.i64(i8* align 16 %14, i8 0, i64 2000, i1 false)
  store i32 0, i32* %7, align 4
  store i32 0, i32* %8, align 4
  store i32 0, i32* %9, align 4
  store i32 0, i32* %10, align 4
  store i32 0, i32* %4, align 4
  br label %15

15:                                               ; preds = %46, %0
  %16 = call i32 (i8*, ...) @__isoc99_scanf(i8* getelementptr inbounds ([3 x i8], [3 x i8]* @.str, i64 0, i64 0), i8* %1)
  %17 = load i8, i8* %1, align 1
  %18 = sext i8 %17 to i32
  %19 = icmp ne i32 %18, 10
  br i1 %19, label %20, label %34

20:                                               ; preds = %15
  %21 = load i8, i8* %1, align 1
  %22 = sext i8 %21 to i32
  %23 = icmp ne i32 %22, 44
  br i1 %23, label %24, label %34

24:                                               ; preds = %20
  %25 = load i8, i8* %1, align 1
  %26 = load i32, i32* %8, align 4
  %27 = sext i32 %26 to i64
  %28 = getelementptr inbounds [500 x [6 x i8]], [500 x [6 x i8]]* %2, i64 0, i64 %27
  %29 = load i32, i32* %9, align 4
  %30 = sext i32 %29 to i64
  %31 = getelementptr inbounds [6 x i8], [6 x i8]* %28, i64 0, i64 %30
  store i8 %25, i8* %31, align 1
  %32 = load i32, i32* %9, align 4
  %33 = add nsw i32 %32, 1
  store i32 %33, i32* %9, align 4
  br label %45

34:                                               ; preds = %20, %15
  %35 = load i8, i8* %1, align 1
  %36 = sext i8 %35 to i32
  %37 = icmp eq i32 %36, 44
  br i1 %37, label %38, label %43

38:                                               ; preds = %34
  %39 = load i32, i32* %8, align 4
  %40 = add nsw i32 %39, 1
  store i32 %40, i32* %8, align 4
  store i32 0, i32* %9, align 4
  %41 = load i32, i32* %7, align 4
  %42 = add nsw i32 %41, 1
  store i32 %42, i32* %7, align 4
  br label %44

43:                                               ; preds = %34
  br label %49

44:                                               ; preds = %38
  br label %45

45:                                               ; preds = %44, %24
  br label %46

46:                                               ; preds = %45
  %47 = load i32, i32* %4, align 4
  %48 = add nsw i32 %47, 1
  store i32 %48, i32* %4, align 4
  br label %15

49:                                               ; preds = %43
  store i32 0, i32* %4, align 4
  br label %50

50:                                               ; preds = %92, %49
  %51 = load i32, i32* %4, align 4
  %52 = icmp sle i32 %51, 499
  br i1 %52, label %53, label %95

53:                                               ; preds = %50
  %54 = load i32, i32* %4, align 4
  %55 = sext i32 %54 to i64
  %56 = getelementptr inbounds [500 x [6 x i8]], [500 x [6 x i8]]* %2, i64 0, i64 %55
  %57 = getelementptr inbounds [6 x i8], [6 x i8]* %56, i64 0, i64 0
  %58 = call i64 @strlen(i8* %57) #4
  %59 = trunc i64 %58 to i32
  store i32 %59, i32* %6, align 4
  store i32 1, i32* %8, align 4
  store i32 1, i32* %5, align 4
  br label %60

60:                                               ; preds = %88, %53
  %61 = load i32, i32* %8, align 4
  %62 = load i32, i32* %6, align 4
  %63 = icmp sle i32 %61, %62
  br i1 %63, label %64, label %91

64:                                               ; preds = %60
  %65 = load i32, i32* %4, align 4
  %66 = sext i32 %65 to i64
  %67 = getelementptr inbounds [500 x i32], [500 x i32]* %3, i64 0, i64 %66
  %68 = load i32, i32* %67, align 4
  %69 = load i32, i32* %4, align 4
  %70 = sext i32 %69 to i64
  %71 = getelementptr inbounds [500 x [6 x i8]], [500 x [6 x i8]]* %2, i64 0, i64 %70
  %72 = load i32, i32* %6, align 4
  %73 = load i32, i32* %8, align 4
  %74 = sub nsw i32 %72, %73
  %75 = sext i32 %74 to i64
  %76 = getelementptr inbounds [6 x i8], [6 x i8]* %71, i64 0, i64 %75
  %77 = load i8, i8* %76, align 1
  %78 = sext i8 %77 to i32
  %79 = sub nsw i32 %78, 48
  %80 = load i32, i32* %5, align 4
  %81 = mul nsw i32 %79, %80
  %82 = add nsw i32 %68, %81
  %83 = load i32, i32* %4, align 4
  %84 = sext i32 %83 to i64
  %85 = getelementptr inbounds [500 x i32], [500 x i32]* %3, i64 0, i64 %84
  store i32 %82, i32* %85, align 4
  %86 = load i32, i32* %5, align 4
  %87 = mul nsw i32 %86, 10
  store i32 %87, i32* %5, align 4
  br label %88

88:                                               ; preds = %64
  %89 = load i32, i32* %8, align 4
  %90 = add nsw i32 %89, 1
  store i32 %90, i32* %8, align 4
  br label %60

91:                                               ; preds = %60
  br label %92

92:                                               ; preds = %91
  %93 = load i32, i32* %4, align 4
  %94 = add nsw i32 %93, 1
  store i32 %94, i32* %4, align 4
  br label %50

95:                                               ; preds = %50
  store i32 0, i32* %4, align 4
  br label %96

96:                                               ; preds = %113, %95
  %97 = load i32, i32* %4, align 4
  %98 = load i32, i32* %7, align 4
  %99 = icmp sle i32 %97, %98
  br i1 %99, label %100, label %116

100:                                              ; preds = %96
  %101 = load i32, i32* %4, align 4
  %102 = sext i32 %101 to i64
  %103 = getelementptr inbounds [500 x i32], [500 x i32]* %3, i64 0, i64 %102
  %104 = load i32, i32* %103, align 4
  %105 = load i32, i32* %11, align 4
  %106 = icmp sgt i32 %104, %105
  br i1 %106, label %107, label %112

107:                                              ; preds = %100
  %108 = load i32, i32* %4, align 4
  %109 = sext i32 %108 to i64
  %110 = getelementptr inbounds [500 x i32], [500 x i32]* %3, i64 0, i64 %109
  %111 = load i32, i32* %110, align 4
  store i32 %111, i32* %11, align 4
  br label %112

112:                                              ; preds = %107, %100
  br label %113

113:                                              ; preds = %112
  %114 = load i32, i32* %4, align 4
  %115 = add nsw i32 %114, 1
  store i32 %115, i32* %4, align 4
  br label %96

116:                                              ; preds = %96
  store i32 0, i32* %4, align 4
  br label %117

117:                                              ; preds = %141, %116
  %118 = load i32, i32* %4, align 4
  %119 = load i32, i32* %7, align 4
  %120 = icmp sle i32 %118, %119
  br i1 %120, label %121, label %144

121:                                              ; preds = %117
  %122 = load i32, i32* %4, align 4
  %123 = sext i32 %122 to i64
  %124 = getelementptr inbounds [500 x i32], [500 x i32]* %3, i64 0, i64 %123
  %125 = load i32, i32* %124, align 4
  %126 = load i32, i32* %12, align 4
  %127 = icmp sgt i32 %125, %126
  br i1 %127, label %128, label %140

128:                                              ; preds = %121
  %129 = load i32, i32* %4, align 4
  %130 = sext i32 %129 to i64
  %131 = getelementptr inbounds [500 x i32], [500 x i32]* %3, i64 0, i64 %130
  %132 = load i32, i32* %131, align 4
  %133 = load i32, i32* %11, align 4
  %134 = icmp slt i32 %132, %133
  br i1 %134, label %135, label %140

135:                                              ; preds = %128
  %136 = load i32, i32* %4, align 4
  %137 = sext i32 %136 to i64
  %138 = getelementptr inbounds [500 x i32], [500 x i32]* %3, i64 0, i64 %137
  %139 = load i32, i32* %138, align 4
  store i32 %139, i32* %12, align 4
  store i32 1, i32* %10, align 4
  br label %140

140:                                              ; preds = %135, %128, %121
  br label %141

141:                                              ; preds = %140
  %142 = load i32, i32* %4, align 4
  %143 = add nsw i32 %142, 1
  store i32 %143, i32* %4, align 4
  br label %117

144:                                              ; preds = %117
  %145 = load i32, i32* %10, align 4
  %146 = icmp ne i32 %145, 0
  br i1 %146, label %147, label %150

147:                                              ; preds = %144
  %148 = load i32, i32* %12, align 4
  %149 = call i32 (i8*, ...) @printf(i8* getelementptr inbounds ([3 x i8], [3 x i8]* @.str.1, i64 0, i64 0), i32 %148)
  br label %152

150:                                              ; preds = %144
  %151 = call i32 (i8*, ...) @printf(i8* getelementptr inbounds ([3 x i8], [3 x i8]* @.str.2, i64 0, i64 0))
  br label %152

152:                                              ; preds = %150, %147
  ret void
}

; Function Attrs: argmemonly nounwind willreturn
declare void @llvm.memset.p0i8.i64(i8* nocapture writeonly, i8, i64, i1 immarg) #1

declare dso_local i32 @__isoc99_scanf(i8*, ...) #2

; Function Attrs: nounwind readonly
declare dso_local i64 @strlen(i8*) #3

declare dso_local i32 @printf(i8*, ...) #2


!llvm.module.flags = !{!0}
!llvm.ident = !{!1}

!0 = !{i32 1, !"wchar_size", i32 4}
!1 = !{!"clang version 10.0.0-4ubuntu1 "}
